target datalayout = "e-m:e-p270:32:32-p271:32:32-p272:64:64-i64:64-i128:128-f80:128-n8:16:32:64-S128"
target triple = "x86_64-pc-linux-gnu"

%struct._object = type { %union.anon, ptr }
%union.anon = type { i64 }
%struct.tokenize_state = type { ptr }
%struct.anon = type { i32, i32 }

; Function Attrs: alwaysinline nounwind uwtable
define internal i32 @_Py_IsImmortal(ptr noundef %0) #5 {
  %2 = alloca ptr, align 8
  store ptr %0, ptr %2, align 8, !tbaa !4
  %3 = load ptr, ptr %2, align 8, !tbaa !4
  %4 = getelementptr inbounds nuw %struct._object, ptr %3, i32 0, i32 0
  %5 = getelementptr inbounds nuw %struct.anon, ptr %4, i32 0, i32 0
  %6 = load i32, ptr %5, align 8, !tbaa !51
  %7 = icmp slt i32 %6, 0
  %8 = zext i1 %7 to i32
  ret i32 %8
}

; Function Attrs: alwaysinline nounwind uwtable
define internal void @Py_DECREF(ptr noundef %0) #5 {
  %2 = alloca ptr, align 8
  store ptr %0, ptr %2, align 8, !tbaa !4
  %3 = load ptr, ptr %2, align 8, !tbaa !4
  %4 = call i32 @_Py_IsImmortal(ptr noundef %3)
  %5 = icmp ne i32 %4, 0
  br i1 %5, label %6, label %7

6:                                                ; preds = %1
  br label %16

7:                                                ; preds = %1
  %8 = load ptr, ptr %2, align 8, !tbaa !4
  %9 = getelementptr inbounds nuw %struct._object, ptr %8, i32 0, i32 0
  %10 = getelementptr inbounds nuw %struct.anon, ptr %9, i32 0, i32 0
  %11 = load i32, ptr %10, align 8, !tbaa !51
  %12 = add i32 %11, -1
  store i32 %12, ptr %10, align 8, !tbaa !51
  %13 = icmp eq i32 %12, 0
  br i1 %13, label %14, label %16

14:                                               ; preds = %7
  %15 = load ptr, ptr %2, align 8, !tbaa !4
  call void @_Py_Dealloc(ptr noundef %15)
  br label %16

16:                                               ; preds = %6, %14, %7
  ret void
}

; Function Attrs: nounwind uwtable
define internal ptr @get_tokenize_state(ptr noundef %0) #0 {
  %2 = alloca ptr, align 8
  store ptr %0, ptr %2, align 8, !tbaa !4
  %3 = load ptr, ptr %2, align 8, !tbaa !4
  %4 = call ptr @PyModule_GetState(ptr noundef %3)
  ret ptr %4
}

; Function Attrs: nounwind uwtable
define internal i32 @tokenizemodule_clear(ptr noundef %0) #0 {
  %2 = alloca ptr, align 8
  %3 = alloca ptr, align 8
  %4 = alloca ptr, align 8
  %5 = alloca ptr, align 8
  store ptr %0, ptr %2, align 8, !tbaa !4
  call void @llvm.lifetime.start.p0(i64 8, ptr %3) #6
  %6 = load ptr, ptr %2, align 8, !tbaa !4
  %7 = call ptr @get_tokenize_state(ptr noundef %6)
  store ptr %7, ptr %3, align 8, !tbaa !9
  br label %8

8:                                                ; preds = %1
  call void @llvm.lifetime.start.p0(i64 8, ptr %4) #6
  %9 = load ptr, ptr %3, align 8, !tbaa !9
  %10 = getelementptr inbounds nuw %struct.tokenize_state, ptr %9, i32 0, i32 0
  store ptr %10, ptr %4, align 8, !tbaa !15
  call void @llvm.lifetime.start.p0(i64 8, ptr %5) #6
  %11 = load ptr, ptr %4, align 8, !tbaa !15
  %12 = load ptr, ptr %11, align 8, !tbaa !17
  store ptr %12, ptr %5, align 8, !tbaa !17
  %13 = load ptr, ptr %5, align 8, !tbaa !17
  %14 = icmp ne ptr %13, null
  br i1 %14, label %15, label %18

15:                                               ; preds = %8
  %16 = load ptr, ptr %4, align 8, !tbaa !15
  store ptr null, ptr %16, align 8, !tbaa !17
  %17 = load ptr, ptr %5, align 8, !tbaa !17
  call void @Py_DECREF(ptr noundef %17)
  br label %18

18:                                               ; preds = %15, %8
  call void @llvm.lifetime.end.p0(i64 8, ptr %5) #6
  call void @llvm.lifetime.end.p0(i64 8, ptr %4) #6
  br label %19

19:                                               ; preds = %18
  br label %20

20:                                               ; preds = %19
  call void @llvm.lifetime.end.p0(i64 8, ptr %3) #6
  ret i32 0
}